Certificate:
    Data:
        Version: 3 (0x2)
        Serial Number: 2 (0x2)
        Signature Algorithm: sha1WithRSAEncryption
        Issuer: C=US, ST=California, O=FMP, OU=OEM Key, CN=OEM Intermediate CA
        Validity
            Not Before: Oct  2 14:27:51 2025 GMT
            Not After : Sep 30 14:27:51 2035 GMT
        Subject: C=US, ST=California, O=FMP, OU=OEM Key, CN=OEM User
        Subject Public Key Info:
            Public Key Algorithm: rsaEncryption
                Public-Key: (2048 bit)
                Modulus:
                    00:b8:1b:67:08:cb:18:c2:35:ec:f0:28:8c:b2:43:
                    9f:31:4f:d3:75:60:46:06:e0:7b:46:d5:49:91:99:
                    96:d0:12:44:c9:c9:38:f0:cb:05:52:fe:8d:34:c6:
                    47:c3:89:7e:ea:9d:e9:6b:19:f1:bb:c5:b5:23:52:
                    4d:9e:14:d8:90:45:5c:1c:60:1f:e2:78:ea:49:76:
                    de:90:33:1a:1e:00:c5:66:09:2e:2f:b1:f4:24:e7:
                    d4:a3:ab:22:1b:2a:0f:98:41:59:17:21:92:c2:0d:
                    d0:a6:3a:62:52:99:90:7d:75:ef:e8:59:6a:58:db:
                    af:02:99:6e:74:09:66:53:6c:c4:ec:12:bf:6b:c6:
                    1c:e2:20:80:e0:3e:bb:1a:09:f7:30:19:04:98:6f:
                    d0:6d:2b:a7:ea:80:b8:f3:9f:f1:b9:78:85:e3:74:
                    14:e1:4b:c4:ba:f9:26:dd:d6:f3:4d:fc:e7:b1:43:
                    d0:4e:ad:3d:e9:ae:bd:6e:52:98:d0:f8:33:c8:41:
                    e2:09:03:0b:6b:1e:7a:58:eb:e4:9d:65:cc:2c:4d:
                    1a:c6:a5:c1:74:c0:ba:fe:7c:0d:1c:42:3f:0a:25:
                    a9:73:2d:ef:43:89:ee:34:83:6a:99:ba:d2:35:d1:
                    33:40:2f:5c:d2:f9:27:13:56:6e:0d:59:4f:a5:8d:
                    1a:b3
                Exponent: 65537 (0x10001)
        X509v3 extensions:
            X509v3 Basic Constraints: 
                CA:FALSE
            X509v3 Key Usage: 
                Digital Signature, Non Repudiation, Key Encipherment
            Netscape Comment: 
                OpenSSL Generated Certificate
            X509v3 Subject Key Identifier: 
                64:DB:D3:71:82:BB:72:4F:7C:60:0A:F4:6D:B5:45:F3:C8:3F:93:1D
            X509v3 Authority Key Identifier: 
                DA:21:C9:5C:0B:18:D5:0B:7A:A4:E5:57:55:64:8D:CB:C3:4A:C2:7E
    Signature Algorithm: sha1WithRSAEncryption
    Signature Value:
        cb:80:3d:1c:b8:d0:14:fc:60:bf:7a:4d:7c:12:d8:c2:44:a6:
        a0:1c:66:f0:3e:b2:00:61:27:5e:74:1c:f4:59:c8:99:17:67:
        72:7a:ea:30:75:8e:51:8f:ce:00:5d:58:8a:d2:9c:c9:54:b4:
        f7:fe:21:4f:ed:1f:78:6b:6e:0e:39:84:d6:43:89:c8:8e:1b:
        28:03:68:f3:40:ff:4c:74:28:2d:71:ca:96:7d:17:d0:61:96:
        2b:57:1b:0f:ce:59:a4:00:45:24:a0:a2:92:08:0c:44:e7:bf:
        97:54:48:e3:c9:df:20:e3:99:c1:9e:5c:ac:af:97:b2:96:b2:
        24:76:86:35:f8:86:ea:02:04:4f:de:c8:99:a7:4e:46:b4:92:
        70:64:dd:88:39:68:55:7d:17:f4:bb:6c:58:c0:b2:7c:10:4f:
        ee:5c:6e:f5:09:33:0b:13:30:46:a8:f5:ba:59:62:a2:42:49:
        c3:0d:eb:eb:f1:a8:82:a8:6b:4a:69:ff:50:aa:2d:d4:ea:4b:
        ff:5f:36:82:eb:35:f2:1e:cf:ab:c9:00:db:47:33:d1:12:25:
        61:f8:46:e6:fa:e0:96:73:18:eb:7c:6d:5b:7a:ef:ff:50:d4:
        43:c6:e2:64:c2:58:c2:83:34:68:56:2a:b2:ba:91:23:10:01:
        bf:74:e6:06
-----BEGIN CERTIFICATE-----
MIIDujCCAqKgAwIBAgIBAjANBgkqhkiG9w0BAQUFADBgMQswCQYDVQQGEwJVUzET
MBEGA1UECBMKQ2FsaWZvcm5pYTEMMAoGA1UEChMDRk1QMRAwDgYDVQQLEwdPRU0g
S2V5MRwwGgYDVQQDExNPRU0gSW50ZXJtZWRpYXRlIENBMB4XDTI1MTAwMjE0Mjc1
MVoXDTM1MDkzMDE0Mjc1MVowVTELMAkGA1UEBhMCVVMxEzARBgNVBAgTCkNhbGlm
b3JuaWExDDAKBgNVBAoTA0ZNUDEQMA4GA1UECxMHT0VNIEtleTERMA8GA1UEAxMI
T0VNIFVzZXIwggEiMA0GCSqGSIb3DQEBAQUAA4IBDwAwggEKAoIBAQC4G2cIyxjC
NezwKIyyQ58xT9N1YEYG4HtG1UmRmZbQEkTJyTjwywVS/o00xkfDiX7qnelrGfG7
xbUjUk2eFNiQRVwcYB/ieOpJdt6QMxoeAMVmCS4vsfQk59SjqyIbKg+YQVkXIZLC
DdCmOmJSmZB9de/oWWpY268CmW50CWZTbMTsEr9rxhziIIDgPrsaCfcwGQSYb9Bt
K6fqgLjzn/G5eIXjdBThS8S6+Sbd1vNN/OexQ9BOrT3prr1uUpjQ+DPIQeIJAwtr
HnpY6+SdZcwsTRrGpcF0wLr+fA0cQj8KJalzLe9Die40g2qZutI10TNAL1zS+ScT
Vm4NWU+ljRqzAgMBAAGjgYkwgYYwCQYDVR0TBAIwADALBgNVHQ8EBAMCBeAwLAYJ
YIZIAYb4QgENBB8WHU9wZW5TU0wgR2VuZXJhdGVkIENlcnRpZmljYXRlMB0GA1Ud
DgQWBBRk29NxgrtyT3xgCvRttUXzyD+THTAfBgNVHSMEGDAWgBTaIclcCxjVC3qk
5VdVZI3Lw0rCfjANBgkqhkiG9w0BAQUFAAOCAQEAy4A9HLjQFPxgv3pNfBLYwkSm
oBxm8D6yAGEnXnQc9FnImRdncnrqMHWOUY/OAF1YitKcyVS09/4hT+0feGtuDjmE
1kOJyI4bKANo80D/THQoLXHKln0X0GGWK1cbD85ZpABFJKCikggMROe/l1RI48nf
IOOZwZ5crK+XspayJHaGNfiG6gIET97ImadORrSScGTdiDloVX0X9LtsWMCyfBBP
7lxu9QkzCxMwRqj1ulliokJJww3r6/GogqhrSmn/UKot1OpL/182gus18h7Pq8kA
20cz0RIlYfhG5vrglnMY63xtW3rv/1DUQ8biZMJYwoM0aFYqsrqRIxABv3TmBg==
-----END CERTIFICATE-----
